target datalayout = "e-m:e-p270:32:32-p271:32:32-p272:64:64-i64:64-i128:128-f80:128-n8:16:32:64-S128"
target triple = "x86_64-pc-linux-gnu"

%"class.ncnn::Crop" = type { %"class.ncnn::Layer", i32, i32, i32, i32, i32, i32, i32, i32, i32, i32, i32, i32, %"class.ncnn::Mat", %"class.ncnn::Mat", %"class.ncnn::Mat" }
%"class.ncnn::Layer" = type { ptr, i8, i8, i8, i8, i8, i8, i8, i8, i8, i8, i8, i8, i8, i8, i8, i8, i8, i8, i8, i8, i32, ptr, i32, %"class.std::__cxx11::basic_string", %"class.std::__cxx11::basic_string", %"class.std::vector", %"class.std::vector", %"class.std::vector.3", %"class.std::vector.3" }
%"class.std::__cxx11::basic_string" = type { %"struct.std::__cxx11::basic_string<char>::_Alloc_hider", i64, %union.anon }
%"struct.std::__cxx11::basic_string<char>::_Alloc_hider" = type { ptr }
%union.anon = type { i64, [8 x i8] }
%"class.std::vector" = type { %"struct.std::_Vector_base" }
%"struct.std::_Vector_base" = type { %"struct.std::_Vector_base<int, std::allocator<int>>::_Vector_impl" }
%"struct.std::_Vector_base<int, std::allocator<int>>::_Vector_impl" = type { %"struct.std::_Vector_base<int, std::allocator<int>>::_Vector_impl_data" }
%"struct.std::_Vector_base<int, std::allocator<int>>::_Vector_impl_data" = type { ptr, ptr, ptr }
%"class.std::vector.3" = type { %"struct.std::_Vector_base.4" }
%"struct.std::_Vector_base.4" = type { %"struct.std::_Vector_base<ncnn::Mat, std::allocator<ncnn::Mat>>::_Vector_impl" }
%"struct.std::_Vector_base<ncnn::Mat, std::allocator<ncnn::Mat>>::_Vector_impl" = type { %"struct.std::_Vector_base<ncnn::Mat, std::allocator<ncnn::Mat>>::_Vector_impl_data" }
%"struct.std::_Vector_base<ncnn::Mat, std::allocator<ncnn::Mat>>::_Vector_impl_data" = type { ptr, ptr, ptr }
%"class.ncnn::Mat" = type { ptr, ptr, i64, i32, ptr, i32, i32, i32, i32, i32, i64 }

; Function Attrs: mustprogress nounwind uwtable
define hidden void @_ZNK4ncnn4Crop16resolve_crop_roiERKNS_3MatES3_RiS4_S4_S4_S4_S4_S4_S4_(ptr noundef nonnull align 8 dereferenceable(472) %0, ptr noundef nonnull align 8 dereferenceable(72) %1, ptr noundef nonnull align 8 dereferenceable(72) %2, ptr noundef nonnull align 4 dereferenceable(4) %3, ptr noundef nonnull align 4 dereferenceable(4) %4, ptr noundef nonnull align 4 dereferenceable(4) %5, ptr noundef nonnull align 4 dereferenceable(4) %6, ptr noundef nonnull align 4 dereferenceable(4) %7, ptr noundef nonnull align 4 dereferenceable(4) %8, ptr noundef nonnull align 4 dereferenceable(4) %9, ptr noundef nonnull align 4 dereferenceable(4) %10) #11 align 2 {
  %12 = alloca ptr, align 8
  %13 = alloca ptr, align 8
  %14 = alloca ptr, align 8
  %15 = alloca ptr, align 8
  %16 = alloca ptr, align 8
  %17 = alloca ptr, align 8
  %18 = alloca ptr, align 8
  %19 = alloca ptr, align 8
  %20 = alloca ptr, align 8
  %21 = alloca ptr, align 8
  %22 = alloca ptr, align 8
  %23 = alloca i32, align 4
  %24 = alloca i32, align 4
  %25 = alloca i32, align 4
  %26 = alloca i32, align 4
  %27 = alloca i32, align 4
  %28 = alloca i32, align 4
  %29 = alloca i32, align 4
  store ptr %0, ptr %12, align 8, !tbaa !4
  store ptr %1, ptr %13, align 8, !tbaa !53
  store ptr %2, ptr %14, align 8, !tbaa !53
  store ptr %3, ptr %15, align 8, !tbaa !72
  store ptr %4, ptr %16, align 8, !tbaa !72
  store ptr %5, ptr %17, align 8, !tbaa !72
  store ptr %6, ptr %18, align 8, !tbaa !72
  store ptr %7, ptr %19, align 8, !tbaa !72
  store ptr %8, ptr %20, align 8, !tbaa !72
  store ptr %9, ptr %21, align 8, !tbaa !72
  store ptr %10, ptr %22, align 8, !tbaa !72
  %30 = load ptr, ptr %12, align 8
  call void @llvm.lifetime.start.p0(i64 4, ptr %23) #9
  %31 = load ptr, ptr %13, align 8, !tbaa !53
  %32 = getelementptr inbounds nuw %"class.ncnn::Mat", ptr %31, i32 0, i32 9
  %33 = load i32, ptr %32, align 8, !tbaa !58
  store i32 %33, ptr %23, align 4, !tbaa !55
  call void @llvm.lifetime.start.p0(i64 4, ptr %24) #9
  %34 = load ptr, ptr %13, align 8, !tbaa !53
  %35 = getelementptr inbounds nuw %"class.ncnn::Mat", ptr %34, i32 0, i32 5
  %36 = load i32, ptr %35, align 8, !tbaa !59
  store i32 %36, ptr %24, align 4, !tbaa !55
  call void @llvm.lifetime.start.p0(i64 4, ptr %25) #9
  %37 = load ptr, ptr %14, align 8, !tbaa !53
  %38 = getelementptr inbounds nuw %"class.ncnn::Mat", ptr %37, i32 0, i32 6
  %39 = load i32, ptr %38, align 4, !tbaa !54
  store i32 %39, ptr %25, align 4, !tbaa !55
  call void @llvm.lifetime.start.p0(i64 4, ptr %26) #9
  %40 = load ptr, ptr %14, align 8, !tbaa !53
  %41 = getelementptr inbounds nuw %"class.ncnn::Mat", ptr %40, i32 0, i32 7
  %42 = load i32, ptr %41, align 8, !tbaa !56
  store i32 %42, ptr %26, align 4, !tbaa !55
  call void @llvm.lifetime.start.p0(i64 4, ptr %27) #9
  %43 = load ptr, ptr %14, align 8, !tbaa !53
  %44 = getelementptr inbounds nuw %"class.ncnn::Mat", ptr %43, i32 0, i32 8
  %45 = load i32, ptr %44, align 4, !tbaa !57
  store i32 %45, ptr %27, align 4, !tbaa !55
  call void @llvm.lifetime.start.p0(i64 4, ptr %28) #9
  %46 = load ptr, ptr %14, align 8, !tbaa !53
  %47 = getelementptr inbounds nuw %"class.ncnn::Mat", ptr %46, i32 0, i32 9
  %48 = load i32, ptr %47, align 8, !tbaa !58
  store i32 %48, ptr %28, align 4, !tbaa !55
  call void @llvm.lifetime.start.p0(i64 4, ptr %29) #9
  %49 = load ptr, ptr %14, align 8, !tbaa !53
  %50 = getelementptr inbounds nuw %"class.ncnn::Mat", ptr %49, i32 0, i32 5
  %51 = load i32, ptr %50, align 8, !tbaa !59
  store i32 %51, ptr %29, align 4, !tbaa !55
  %52 = load i32, ptr %24, align 4, !tbaa !55
  %53 = icmp eq i32 %52, 1
  br i1 %53, label %54, label %60

54:                                               ; preds = %11
  %55 = getelementptr inbounds nuw %"class.ncnn::Crop", ptr %30, i32 0, i32 1
  %56 = load i32, ptr %55, align 8, !tbaa !13
  %57 = load ptr, ptr %15, align 8, !tbaa !72
  store i32 %56, ptr %57, align 4, !tbaa !55
  %58 = load i32, ptr %25, align 4, !tbaa !55
  %59 = load ptr, ptr %19, align 8, !tbaa !72
  store i32 %58, ptr %59, align 4, !tbaa !55
  br label %60

60:                                               ; preds = %54, %11
  %61 = load i32, ptr %24, align 4, !tbaa !55
  %62 = icmp eq i32 %61, 2
  br i1 %62, label %63, label %74

63:                                               ; preds = %60
  %64 = getelementptr inbounds nuw %"class.ncnn::Crop", ptr %30, i32 0, i32 1
  %65 = load i32, ptr %64, align 8, !tbaa !13
  %66 = load ptr, ptr %15, align 8, !tbaa !72
  store i32 %65, ptr %66, align 4, !tbaa !55
  %67 = getelementptr inbounds nuw %"class.ncnn::Crop", ptr %30, i32 0, i32 2
  %68 = load i32, ptr %67, align 4, !tbaa !34
  %69 = load ptr, ptr %16, align 8, !tbaa !72
  store i32 %68, ptr %69, align 4, !tbaa !55
  %70 = load i32, ptr %25, align 4, !tbaa !55
  %71 = load ptr, ptr %19, align 8, !tbaa !72
  store i32 %70, ptr %71, align 4, !tbaa !55
  %72 = load i32, ptr %26, align 4, !tbaa !55
  %73 = load ptr, ptr %20, align 8, !tbaa !72
  store i32 %72, ptr %73, align 4, !tbaa !55
  br label %74

74:                                               ; preds = %63, %60
  %75 = load i32, ptr %24, align 4, !tbaa !55
  %76 = icmp eq i32 %75, 3
  br i1 %76, label %77, label %100

77:                                               ; preds = %74
  %78 = getelementptr inbounds nuw %"class.ncnn::Crop", ptr %30, i32 0, i32 1
  %79 = load i32, ptr %78, align 8, !tbaa !13
  %80 = load ptr, ptr %15, align 8, !tbaa !72
  store i32 %79, ptr %80, align 4, !tbaa !55
  %81 = getelementptr inbounds nuw %"class.ncnn::Crop", ptr %30, i32 0, i32 2
  %82 = load i32, ptr %81, align 4, !tbaa !34
  %83 = load ptr, ptr %16, align 8, !tbaa !72
  store i32 %82, ptr %83, align 4, !tbaa !55
  %84 = getelementptr inbounds nuw %"class.ncnn::Crop", ptr %30, i32 0, i32 4
  %85 = load i32, ptr %84, align 4, !tbaa !36
  %86 = load ptr, ptr %18, align 8, !tbaa !72
  store i32 %85, ptr %86, align 4, !tbaa !55
  %87 = load i32, ptr %25, align 4, !tbaa !55
  %88 = load ptr, ptr %19, align 8, !tbaa !72
  store i32 %87, ptr %88, align 4, !tbaa !55
  %89 = load i32, ptr %26, align 4, !tbaa !55
  %90 = load ptr, ptr %20, align 8, !tbaa !72
  store i32 %89, ptr %90, align 4, !tbaa !55
  %91 = load i32, ptr %29, align 4, !tbaa !55
  %92 = icmp eq i32 %91, 3
  br i1 %92, label %93, label %95

93:                                               ; preds = %77
  %94 = load i32, ptr %28, align 4, !tbaa !55
  br label %97

95:                                               ; preds = %77
  %96 = load i32, ptr %23, align 4, !tbaa !55
  br label %97

97:                                               ; preds = %95, %93
  %98 = phi i32 [ %94, %93 ], [ %96, %95 ]
  %99 = load ptr, ptr %22, align 8, !tbaa !72
  store i32 %98, ptr %99, align 4, !tbaa !55
  br label %100

100:                                              ; preds = %97, %74
  %101 = load i32, ptr %24, align 4, !tbaa !55
  %102 = icmp eq i32 %101, 4
  br i1 %102, label %103, label %131

103:                                              ; preds = %100
  %104 = getelementptr inbounds nuw %"class.ncnn::Crop", ptr %30, i32 0, i32 1
  %105 = load i32, ptr %104, align 8, !tbaa !13
  %106 = load ptr, ptr %15, align 8, !tbaa !72
  store i32 %105, ptr %106, align 4, !tbaa !55
  %107 = getelementptr inbounds nuw %"class.ncnn::Crop", ptr %30, i32 0, i32 2
  %108 = load i32, ptr %107, align 4, !tbaa !34
  %109 = load ptr, ptr %16, align 8, !tbaa !72
  store i32 %108, ptr %109, align 4, !tbaa !55
  %110 = getelementptr inbounds nuw %"class.ncnn::Crop", ptr %30, i32 0, i32 3
  %111 = load i32, ptr %110, align 8, !tbaa !35
  %112 = load ptr, ptr %17, align 8, !tbaa !72
  store i32 %111, ptr %112, align 4, !tbaa !55
  %113 = getelementptr inbounds nuw %"class.ncnn::Crop", ptr %30, i32 0, i32 4
  %114 = load i32, ptr %113, align 4, !tbaa !36
  %115 = load ptr, ptr %18, align 8, !tbaa !72
  store i32 %114, ptr %115, align 4, !tbaa !55
  %116 = load i32, ptr %25, align 4, !tbaa !55
  %117 = load ptr, ptr %19, align 8, !tbaa !72
  store i32 %116, ptr %117, align 4, !tbaa !55
  %118 = load i32, ptr %26, align 4, !tbaa !55
  %119 = load ptr, ptr %20, align 8, !tbaa !72
  store i32 %118, ptr %119, align 4, !tbaa !55
  %120 = load i32, ptr %27, align 4, !tbaa !55
  %121 = load ptr, ptr %21, align 8, !tbaa !72
  store i32 %120, ptr %121, align 4, !tbaa !55
  %122 = load i32, ptr %29, align 4, !tbaa !55
  %123 = icmp eq i32 %122, 4
  br i1 %123, label %124, label %126

124:                                              ; preds = %103
  %125 = load i32, ptr %28, align 4, !tbaa !55
  br label %128

126:                                              ; preds = %103
  %127 = load i32, ptr %23, align 4, !tbaa !55
  br label %128

128:                                              ; preds = %126, %124
  %129 = phi i32 [ %125, %124 ], [ %127, %126 ]
  %130 = load ptr, ptr %22, align 8, !tbaa !72
  store i32 %129, ptr %130, align 4, !tbaa !55
  br label %131

131:                                              ; preds = %128, %100
  call void @llvm.lifetime.end.p0(i64 4, ptr %29) #9
  call void @llvm.lifetime.end.p0(i64 4, ptr %28) #9
  call void @llvm.lifetime.end.p0(i64 4, ptr %27) #9
  call void @llvm.lifetime.end.p0(i64 4, ptr %26) #9
  call void @llvm.lifetime.end.p0(i64 4, ptr %25) #9
  call void @llvm.lifetime.end.p0(i64 4, ptr %24) #9
  call void @llvm.lifetime.end.p0(i64 4, ptr %23) #9
  ret void
}