; Function Attrs: mustprogress nofree norecurse nosync nounwind willreturn memory(argmem: readwrite) uwtable
define hidden void @_ZNK4ncnn4Crop16resolve_crop_roiERKNS_3MatES3_RiS4_S4_S4_S4_S4_S4_S4_(ptr noundef nonnull readonly align 8 captures(none) dereferenceable(472) %0, ptr noundef nonnull readonly align 8 captures(none) dereferenceable(72) %1, ptr noundef nonnull readonly align 8 captures(none) dereferenceable(72) %2, ptr noundef nonnull writeonly align 4 captures(none) dereferenceable(4) %3, ptr noundef nonnull writeonly align 4 captures(none) dereferenceable(4) %4, ptr noundef nonnull writeonly align 4 captures(none) dereferenceable(4) %5, ptr noundef nonnull writeonly align 4 captures(none) dereferenceable(4) %6, ptr noundef nonnull writeonly align 4 captures(none) dereferenceable(4) %7, ptr noundef nonnull writeonly align 4 captures(none) dereferenceable(4) %8, ptr noundef nonnull writeonly align 4 captures(none) dereferenceable(4) %9, ptr noundef nonnull writeonly align 4 captures(none) dereferenceable(4) %10) local_unnamed_addr #13 align 2 {
  %12 = getelementptr inbounds nuw i8, ptr %1, i64 56
  %13 = load i32, ptr %12, align 8, !tbaa !51
  %14 = getelementptr inbounds nuw i8, ptr %1, i64 40
  %15 = load i32, ptr %14, align 8, !tbaa !47
  %16 = getelementptr inbounds nuw i8, ptr %2, i64 44
  %17 = load i32, ptr %16, align 4, !tbaa !48
  %18 = getelementptr inbounds nuw i8, ptr %2, i64 48
  %19 = load i32, ptr %18, align 8, !tbaa !49
  %20 = getelementptr inbounds nuw i8, ptr %2, i64 56
  %21 = load i32, ptr %20, align 8, !tbaa !51
  %22 = getelementptr inbounds nuw i8, ptr %2, i64 40
  %23 = load i32, ptr %22, align 8, !tbaa !47
  switch i32 %15, label %54 [
    i32 1, label %24
    i32 2, label %27
    i32 3, label %32
    i32 4, label %41
  ]

24:                                               ; preds = %11
  %25 = getelementptr inbounds nuw i8, ptr %0, i64 208
  %26 = load i32, ptr %25, align 8, !tbaa !18
  store i32 %26, ptr %3, align 4, !tbaa !55
  store i32 %17, ptr %7, align 4, !tbaa !55
  br label %54

27:                                               ; preds = %11
  %28 = getelementptr inbounds nuw i8, ptr %0, i64 208
  %29 = load i32, ptr %28, align 8, !tbaa !18
  store i32 %29, ptr %3, align 4, !tbaa !55
  %30 = getelementptr inbounds nuw i8, ptr %0, i64 212
  %31 = load i32, ptr %30, align 4, !tbaa !34
  store i32 %31, ptr %4, align 4, !tbaa !55
  store i32 %17, ptr %7, align 4, !tbaa !55
  store i32 %19, ptr %8, align 4, !tbaa !55
  br label %54

32:                                               ; preds = %11
  %33 = getelementptr inbounds nuw i8, ptr %0, i64 208
  %34 = load i32, ptr %33, align 8, !tbaa !18
  store i32 %34, ptr %3, align 4, !tbaa !55
  %35 = getelementptr inbounds nuw i8, ptr %0, i64 212
  %36 = load i32, ptr %35, align 4, !tbaa !34
  store i32 %36, ptr %4, align 4, !tbaa !55
  %37 = getelementptr inbounds nuw i8, ptr %0, i64 220
  %38 = load i32, ptr %37, align 4, !tbaa !36
  store i32 %38, ptr %6, align 4, !tbaa !55
  store i32 %17, ptr %7, align 4, !tbaa !55
  store i32 %19, ptr %8, align 4, !tbaa !55
  %39 = icmp eq i32 %23, 3
  %40 = select i1 %39, i32 %21, i32 %13
  store i32 %40, ptr %10, align 4, !tbaa !55
  br label %54

41:                                               ; preds = %11
  %42 = getelementptr inbounds nuw i8, ptr %2, i64 52
  %43 = load i32, ptr %42, align 4, !tbaa !50
  %44 = getelementptr inbounds nuw i8, ptr %0, i64 208
  %45 = load i32, ptr %44, align 8, !tbaa !18
  store i32 %45, ptr %3, align 4, !tbaa !55
  %46 = getelementptr inbounds nuw i8, ptr %0, i64 212
  %47 = load i32, ptr %46, align 4, !tbaa !34
  store i32 %47, ptr %4, align 4, !tbaa !55
  %48 = getelementptr inbounds nuw i8, ptr %0, i64 216
  %49 = load i32, ptr %48, align 8, !tbaa !35
  store i32 %49, ptr %5, align 4, !tbaa !55
  %50 = getelementptr inbounds nuw i8, ptr %0, i64 220
  %51 = load i32, ptr %50, align 4, !tbaa !36
  store i32 %51, ptr %6, align 4, !tbaa !55
  store i32 %17, ptr %7, align 4, !tbaa !55
  store i32 %19, ptr %8, align 4, !tbaa !55
  store i32 %43, ptr %9, align 4, !tbaa !55
  %52 = icmp eq i32 %23, 4
  %53 = select i1 %52, i32 %21, i32 %13
  store i32 %53, ptr %10, align 4, !tbaa !55
  br label %54

54:                                               ; preds = %32, %27, %24, %11, %41
  ret void
}